; Function Attrs: null_pointer_is_valid sspstrong uwtable
define internal i32 @dissect_p1_SubjectIdentifier(i1 noundef zeroext %0, ptr noundef %1, i32 noundef %2, ptr noundef %3, ptr noundef %4, i32 noundef %5) #0 {
  %7 = getelementptr inbounds nuw i8, ptr %3, i64 136
  %8 = load ptr, ptr %7, align 8
  %9 = icmp eq ptr %8, null
  br i1 %9, label %10, label %set_do_address.exit.i.i

10:                                               ; preds = %6
  %11 = getelementptr inbounds nuw i8, ptr %3, i64 16
  %12 = load ptr, ptr %11, align 8
  %13 = getelementptr inbounds nuw i8, ptr %12, i64 408
  %14 = load ptr, ptr %13, align 8
  %15 = tail call noalias dereferenceable_or_null(32) ptr @wmem_alloc0(ptr noundef %14, i64 noundef 32) #6
  store ptr %15, ptr %7, align 8
  br label %set_do_address.exit.i.i

set_do_address.exit.i.i:                          ; preds = %10, %6
  %16 = phi ptr [ %15, %10 ], [ %8, %6 ]
  store i8 1, ptr %16, align 8
  %17 = tail call i32 @dissect_ber_tagged_type(i1 noundef zeroext %0, ptr noundef %3, ptr noundef %4, ptr noundef %1, i32 noundef %2, i32 noundef %5, i8 noundef signext 1, i32 noundef 4, i1 noundef zeroext true, ptr noundef nonnull @dissect_p1_MTSIdentifier_U)
  %18 = load ptr, ptr %7, align 8
  %19 = icmp eq ptr %18, null
  br i1 %19, label %20, label %dissect_p1_MessageOrProbeIdentifier.exit

20:                                               ; preds = %set_do_address.exit.i.i
  %21 = getelementptr inbounds nuw i8, ptr %3, i64 16
  %22 = load ptr, ptr %21, align 8
  %23 = getelementptr inbounds nuw i8, ptr %22, i64 408
  %24 = load ptr, ptr %23, align 8
  %25 = tail call noalias dereferenceable_or_null(32) ptr @wmem_alloc0(ptr noundef %24, i64 noundef 32) #6
  store ptr %25, ptr %7, align 8
  br label %dissect_p1_MessageOrProbeIdentifier.exit

dissect_p1_MessageOrProbeIdentifier.exit:         ; preds = %set_do_address.exit.i.i, %20
  %26 = phi ptr [ %25, %20 ], [ %18, %set_do_address.exit.i.i ]
  store i8 0, ptr %26, align 8
  ret i32 %17
}